target datalayout = "e-m:e-p270:32:32-p271:32:32-p272:64:64-i64:64-i128:128-f80:128-n8:16:32:64-S128"
target triple = "x86_64-pc-linux-gnu"

%struct.AVCodecTag = type { i32, i32 }
%struct.AVChannelLayout = type { i32, i32, %union.anon, ptr }
%union.anon = type { i64 }
%struct.AVFormatContext = type { ptr, ptr, ptr, ptr, ptr, i32, i32, ptr, i32, ptr, i32, ptr, ptr, i64, i64, i64, i32, i32, i32, i64, i64, ptr, i32, i32, ptr, i32, i32, i32, i32, ptr, i64, i32, i32, %struct.AVIOInterruptCB, i32, i32, i32, i32, i64, i32, i32, i32, i32, i32, i32, i32, i32, i32, i32, i32, i32, i64, i32, i32, i32, i32, i32, ptr, ptr, ptr, ptr, i32, ptr, ptr, ptr, ptr, i32, ptr, ptr, i64, ptr, ptr, ptr, i64 }
%struct.AVIOInterruptCB = type { ptr, ptr }
%struct.AVStream = type { ptr, i32, i32, ptr, ptr, %struct.AVRational, i64, i64, i64, i32, i32, %struct.AVRational, ptr, %struct.AVRational, %struct.AVPacket, i32, %struct.AVRational, i32 }
%struct.AVPacket = type { ptr, i64, i64, ptr, i32, i32, i32, ptr, i32, i64, i64, ptr, ptr, %struct.AVRational }
%struct.AVRational = type { i32, i32 }
%struct.AVCodecParameters = type { i32, i32, i32, ptr, i32, ptr, i32, i32, i64, i32, i32, i32, i32, i32, i32, %struct.AVRational, %struct.AVRational, i32, i32, i32, i32, i32, i32, i32, %struct.AVChannelLayout, i32, i32, i32, i32, i32, i32 }

@ff_codec_ast_tags = external constant [0 x %struct.AVCodecTag], align 4
@.str.2 = private unnamed_addr constant [9 x i8] c"depth %d\00", align 1

; Function Attrs: nounwind uwtable
define internal i32 @ast_read_header(ptr noundef %0) #0 {
  %2 = alloca i32, align 4
  %3 = alloca ptr, align 8
  %4 = alloca i32, align 4
  %5 = alloca ptr, align 8
  %6 = alloca i32, align 4
  %7 = alloca %struct.AVChannelLayout, align 8
  %8 = alloca %struct.AVChannelLayout, align 8
  store ptr %0, ptr %3, align 8, !tbaa !14
  call void @llvm.lifetime.start.p0(i64 4, ptr %4) #7
  call void @llvm.lifetime.start.p0(i64 8, ptr %5) #7
  %9 = load ptr, ptr %3, align 8, !tbaa !14
  %10 = call ptr @avformat_new_stream(ptr noundef %9, ptr noundef null)
  store ptr %10, ptr %5, align 8, !tbaa !16
  %11 = load ptr, ptr %5, align 8, !tbaa !16
  %12 = icmp ne ptr %11, null
  br i1 %12, label %14, label %13

13:                                               ; preds = %1
  store i32 -12, ptr %2, align 4
  store i32 1, ptr %6, align 4
  br label %134

14:                                               ; preds = %1
  %15 = load ptr, ptr %3, align 8, !tbaa !14
  %16 = getelementptr inbounds nuw %struct.AVFormatContext, ptr %15, i32 0, i32 4
  %17 = load ptr, ptr %16, align 8, !tbaa !18
  %18 = call i64 @avio_skip(ptr noundef %17, i64 noundef 8)
  %19 = load ptr, ptr %5, align 8, !tbaa !16
  %20 = getelementptr inbounds nuw %struct.AVStream, ptr %19, i32 0, i32 3
  %21 = load ptr, ptr %20, align 8, !tbaa !33
  %22 = getelementptr inbounds nuw %struct.AVCodecParameters, ptr %21, i32 0, i32 0
  store i32 1, ptr %22, align 8, !tbaa !40
  %23 = load ptr, ptr %3, align 8, !tbaa !14
  %24 = getelementptr inbounds nuw %struct.AVFormatContext, ptr %23, i32 0, i32 4
  %25 = load ptr, ptr %24, align 8, !tbaa !18
  %26 = call i32 @avio_rb16(ptr noundef %25)
  %27 = call i32 @ff_codec_get_id(ptr noundef @ff_codec_ast_tags, i32 noundef %26)
  %28 = load ptr, ptr %5, align 8, !tbaa !16
  %29 = getelementptr inbounds nuw %struct.AVStream, ptr %28, i32 0, i32 3
  %30 = load ptr, ptr %29, align 8, !tbaa !33
  %31 = getelementptr inbounds nuw %struct.AVCodecParameters, ptr %30, i32 0, i32 1
  store i32 %27, ptr %31, align 4, !tbaa !43
  %32 = load ptr, ptr %3, align 8, !tbaa !14
  %33 = getelementptr inbounds nuw %struct.AVFormatContext, ptr %32, i32 0, i32 4
  %34 = load ptr, ptr %33, align 8, !tbaa !18
  %35 = call i32 @avio_rb16(ptr noundef %34)
  store i32 %35, ptr %4, align 4, !tbaa !44
  %36 = load i32, ptr %4, align 4, !tbaa !44
  %37 = icmp ne i32 %36, 16
  br i1 %37, label %38, label %41

38:                                               ; preds = %14
  %39 = load ptr, ptr %3, align 8, !tbaa !14
  %40 = load i32, ptr %4, align 4, !tbaa !44
  call void (ptr, ptr, ...) @avpriv_request_sample(ptr noundef %39, ptr noundef @.str.2, i32 noundef %40)
  store i32 -1094995529, ptr %2, align 4
  store i32 1, ptr %6, align 4
  br label %134

41:                                               ; preds = %14
  %42 = load ptr, ptr %3, align 8, !tbaa !14
  %43 = getelementptr inbounds nuw %struct.AVFormatContext, ptr %42, i32 0, i32 4
  %44 = load ptr, ptr %43, align 8, !tbaa !18
  %45 = call i32 @avio_rb16(ptr noundef %44)
  %46 = load ptr, ptr %5, align 8, !tbaa !16
  %47 = getelementptr inbounds nuw %struct.AVStream, ptr %46, i32 0, i32 3
  %48 = load ptr, ptr %47, align 8, !tbaa !33
  %49 = getelementptr inbounds nuw %struct.AVCodecParameters, ptr %48, i32 0, i32 24
  %50 = getelementptr inbounds nuw %struct.AVChannelLayout, ptr %49, i32 0, i32 1
  store i32 %45, ptr %50, align 4, !tbaa !45
  %51 = load ptr, ptr %5, align 8, !tbaa !16
  %52 = getelementptr inbounds nuw %struct.AVStream, ptr %51, i32 0, i32 3
  %53 = load ptr, ptr %52, align 8, !tbaa !33
  %54 = getelementptr inbounds nuw %struct.AVCodecParameters, ptr %53, i32 0, i32 24
  %55 = getelementptr inbounds nuw %struct.AVChannelLayout, ptr %54, i32 0, i32 1
  %56 = load i32, ptr %55, align 4, !tbaa !45
  %57 = icmp ne i32 %56, 0
  br i1 %57, label %59, label %58

58:                                               ; preds = %41
  store i32 -1094995529, ptr %2, align 4
  store i32 1, ptr %6, align 4
  br label %134

59:                                               ; preds = %41
  %60 = load ptr, ptr %5, align 8, !tbaa !16
  %61 = getelementptr inbounds nuw %struct.AVStream, ptr %60, i32 0, i32 3
  %62 = load ptr, ptr %61, align 8, !tbaa !33
  %63 = getelementptr inbounds nuw %struct.AVCodecParameters, ptr %62, i32 0, i32 24
  %64 = getelementptr inbounds nuw %struct.AVChannelLayout, ptr %63, i32 0, i32 1
  %65 = load i32, ptr %64, align 4, !tbaa !45
  %66 = icmp eq i32 %65, 2
  br i1 %66, label %67, label %76

67:                                               ; preds = %59
  %68 = load ptr, ptr %5, align 8, !tbaa !16
  %69 = getelementptr inbounds nuw %struct.AVStream, ptr %68, i32 0, i32 3
  %70 = load ptr, ptr %69, align 8, !tbaa !33
  %71 = getelementptr inbounds nuw %struct.AVCodecParameters, ptr %70, i32 0, i32 24
  %72 = getelementptr inbounds nuw %struct.AVChannelLayout, ptr %7, i32 0, i32 0
  store i32 1, ptr %72, align 8, !tbaa !46
  %73 = getelementptr inbounds nuw %struct.AVChannelLayout, ptr %7, i32 0, i32 1
  store i32 2, ptr %73, align 4, !tbaa !47
  %74 = getelementptr inbounds nuw %struct.AVChannelLayout, ptr %7, i32 0, i32 2
  store i64 3, ptr %74, align 8, !tbaa !13
  %75 = getelementptr inbounds nuw %struct.AVChannelLayout, ptr %7, i32 0, i32 3
  store ptr null, ptr %75, align 8, !tbaa !48
  call void @llvm.memcpy.p0.p0.i64(ptr align 8 %71, ptr align 8 %7, i64 24, i1 false), !tbaa.struct !49
  br label %94

76:                                               ; preds = %59
  %77 = load ptr, ptr %5, align 8, !tbaa !16
  %78 = getelementptr inbounds nuw %struct.AVStream, ptr %77, i32 0, i32 3
  %79 = load ptr, ptr %78, align 8, !tbaa !33
  %80 = getelementptr inbounds nuw %struct.AVCodecParameters, ptr %79, i32 0, i32 24
  %81 = getelementptr inbounds nuw %struct.AVChannelLayout, ptr %80, i32 0, i32 1
  %82 = load i32, ptr %81, align 4, !tbaa !45
  %83 = icmp eq i32 %82, 4
  br i1 %83, label %84, label %93

84:                                               ; preds = %76
  %85 = load ptr, ptr %5, align 8, !tbaa !16
  %86 = getelementptr inbounds nuw %struct.AVStream, ptr %85, i32 0, i32 3
  %87 = load ptr, ptr %86, align 8, !tbaa !33
  %88 = getelementptr inbounds nuw %struct.AVCodecParameters, ptr %87, i32 0, i32 24
  %89 = getelementptr inbounds nuw %struct.AVChannelLayout, ptr %8, i32 0, i32 0
  store i32 1, ptr %89, align 8, !tbaa !46
  %90 = getelementptr inbounds nuw %struct.AVChannelLayout, ptr %8, i32 0, i32 1
  store i32 4, ptr %90, align 4, !tbaa !47
  %91 = getelementptr inbounds nuw %struct.AVChannelLayout, ptr %8, i32 0, i32 2
  store i64 263, ptr %91, align 8, !tbaa !13
  %92 = getelementptr inbounds nuw %struct.AVChannelLayout, ptr %8, i32 0, i32 3
  store ptr null, ptr %92, align 8, !tbaa !48
  call void @llvm.memcpy.p0.p0.i64(ptr align 8 %88, ptr align 8 %8, i64 24, i1 false), !tbaa.struct !49
  br label %93

93:                                               ; preds = %84, %76
  br label %94

94:                                               ; preds = %93, %67
  %95 = load ptr, ptr %3, align 8, !tbaa !14
  %96 = getelementptr inbounds nuw %struct.AVFormatContext, ptr %95, i32 0, i32 4
  %97 = load ptr, ptr %96, align 8, !tbaa !18
  %98 = call i64 @avio_skip(ptr noundef %97, i64 noundef 2)
  %99 = load ptr, ptr %3, align 8, !tbaa !14
  %100 = getelementptr inbounds nuw %struct.AVFormatContext, ptr %99, i32 0, i32 4
  %101 = load ptr, ptr %100, align 8, !tbaa !18
  %102 = call i32 @avio_rb32(ptr noundef %101)
  %103 = load ptr, ptr %5, align 8, !tbaa !16
  %104 = getelementptr inbounds nuw %struct.AVStream, ptr %103, i32 0, i32 3
  %105 = load ptr, ptr %104, align 8, !tbaa !33
  %106 = getelementptr inbounds nuw %struct.AVCodecParameters, ptr %105, i32 0, i32 25
  store i32 %102, ptr %106, align 8, !tbaa !51
  %107 = load ptr, ptr %5, align 8, !tbaa !16
  %108 = getelementptr inbounds nuw %struct.AVStream, ptr %107, i32 0, i32 3
  %109 = load ptr, ptr %108, align 8, !tbaa !33
  %110 = getelementptr inbounds nuw %struct.AVCodecParameters, ptr %109, i32 0, i32 25
  %111 = load i32, ptr %110, align 8, !tbaa !51
  %112 = icmp sle i32 %111, 0
  br i1 %112, label %113, label %114

113:                                              ; preds = %94
  store i32 -1094995529, ptr %2, align 4
  store i32 1, ptr %6, align 4
  br label %134

114:                                              ; preds = %94
  %115 = load ptr, ptr %5, align 8, !tbaa !16
  %116 = getelementptr inbounds nuw %struct.AVStream, ptr %115, i32 0, i32 6
  store i64 0, ptr %116, align 8, !tbaa !52
  %117 = load ptr, ptr %3, align 8, !tbaa !14
  %118 = getelementptr inbounds nuw %struct.AVFormatContext, ptr %117, i32 0, i32 4
  %119 = load ptr, ptr %118, align 8, !tbaa !18
  %120 = call i32 @avio_rb32(ptr noundef %119)
  %121 = zext i32 %120 to i64
  %122 = load ptr, ptr %5, align 8, !tbaa !16
  %123 = getelementptr inbounds nuw %struct.AVStream, ptr %122, i32 0, i32 7
  store i64 %121, ptr %123, align 8, !tbaa !53
  %124 = load ptr, ptr %3, align 8, !tbaa !14
  %125 = getelementptr inbounds nuw %struct.AVFormatContext, ptr %124, i32 0, i32 4
  %126 = load ptr, ptr %125, align 8, !tbaa !18
  %127 = call i64 @avio_skip(ptr noundef %126, i64 noundef 40)
  %128 = load ptr, ptr %5, align 8, !tbaa !16
  %129 = load ptr, ptr %5, align 8, !tbaa !16
  %130 = getelementptr inbounds nuw %struct.AVStream, ptr %129, i32 0, i32 3
  %131 = load ptr, ptr %130, align 8, !tbaa !33
  %132 = getelementptr inbounds nuw %struct.AVCodecParameters, ptr %131, i32 0, i32 25
  %133 = load i32, ptr %132, align 8, !tbaa !51
  call void @avpriv_set_pts_info(ptr noundef %128, i32 noundef 64, i32 noundef 1, i32 noundef %133)
  store i32 0, ptr %2, align 4
  store i32 1, ptr %6, align 4
  br label %134

134:                                              ; preds = %114, %113, %58, %38, %13
  call void @llvm.lifetime.end.p0(i64 8, ptr %5) #7
  call void @llvm.lifetime.end.p0(i64 4, ptr %4) #7
  %135 = load i32, ptr %2, align 4
  ret i32 %135
}