; Function Attrs: nounwind uwtable
define internal range(i32 -1094995529, 1) i32 @ast_read_header(ptr noundef %0) #1 {
  %2 = tail call ptr @avformat_new_stream(ptr noundef %0, ptr noundef null) #4
  %.not = icmp eq ptr %2, null
  br i1 %.not, label %43, label %3

3:                                                ; preds = %1
  %4 = getelementptr inbounds nuw i8, ptr %0, i64 32
  %5 = load ptr, ptr %4, align 8, !tbaa !12
  %6 = tail call i64 @avio_skip(ptr noundef %5, i64 noundef 8) #4
  %7 = getelementptr inbounds nuw i8, ptr %2, i64 16
  %8 = load ptr, ptr %7, align 8, !tbaa !27
  store i32 1, ptr %8, align 8, !tbaa !34
  %9 = load ptr, ptr %4, align 8, !tbaa !12
  %10 = tail call i32 @avio_rb16(ptr noundef %9) #4
  %11 = tail call i32 @ff_codec_get_id(ptr noundef nonnull @ff_codec_ast_tags, i32 noundef %10) #4
  %12 = load ptr, ptr %7, align 8, !tbaa !27
  %13 = getelementptr inbounds nuw i8, ptr %12, i64 4
  store i32 %11, ptr %13, align 4, !tbaa !37
  %14 = load ptr, ptr %4, align 8, !tbaa !12
  %15 = tail call i32 @avio_rb16(ptr noundef %14) #4
  %.not34 = icmp eq i32 %15, 16
  br i1 %.not34, label %17, label %16

16:                                               ; preds = %3
  tail call void (ptr, ptr, ...) @avpriv_request_sample(ptr noundef nonnull %0, ptr noundef nonnull @.str.2, i32 noundef %15) #4
  br label %43

17:                                               ; preds = %3
  %18 = load ptr, ptr %4, align 8, !tbaa !12
  %19 = tail call i32 @avio_rb16(ptr noundef %18) #4
  %20 = load ptr, ptr %7, align 8, !tbaa !27
  %21 = getelementptr inbounds nuw i8, ptr %20, i64 132
  store i32 %19, ptr %21, align 4, !tbaa !38
  %22 = getelementptr inbounds nuw i8, ptr %20, i64 128
  switch i32 %19, label %24 [
    i32 0, label %43
    i32 2, label %.sink.split
    i32 4, label %23
  ]

23:                                               ; preds = %17
  br label %.sink.split

.sink.split:                                      ; preds = %17, %23
  %.sink = phi i64 [ 263, %23 ], [ 3, %17 ]
  store i32 1, ptr %22, align 8, !tbaa !39
  store i32 %19, ptr %21, align 4, !tbaa !39
  %.sroa.3.0..sroa_idx = getelementptr inbounds nuw i8, ptr %20, i64 136
  store i64 %.sink, ptr %.sroa.3.0..sroa_idx, align 8, !tbaa !11
  %.sroa.4.0..sroa_idx = getelementptr inbounds nuw i8, ptr %20, i64 144
  store ptr null, ptr %.sroa.4.0..sroa_idx, align 8, !tbaa !40
  br label %24

24:                                               ; preds = %.sink.split, %17
  %25 = load ptr, ptr %4, align 8, !tbaa !12
  %26 = tail call i64 @avio_skip(ptr noundef %25, i64 noundef 2) #4
  %27 = load ptr, ptr %4, align 8, !tbaa !12
  %28 = tail call i32 @avio_rb32(ptr noundef %27) #4
  %29 = load ptr, ptr %7, align 8, !tbaa !27
  %30 = getelementptr inbounds nuw i8, ptr %29, i64 152
  store i32 %28, ptr %30, align 8, !tbaa !41
  %31 = icmp slt i32 %28, 1
  br i1 %31, label %43, label %32

32:                                               ; preds = %24
  %33 = getelementptr inbounds nuw i8, ptr %2, i64 40
  store i64 0, ptr %33, align 8, !tbaa !42
  %34 = load ptr, ptr %4, align 8, !tbaa !12
  %35 = tail call i32 @avio_rb32(ptr noundef %34) #4
  %36 = zext i32 %35 to i64
  %37 = getelementptr inbounds nuw i8, ptr %2, i64 48
  store i64 %36, ptr %37, align 8, !tbaa !43
  %38 = load ptr, ptr %4, align 8, !tbaa !12
  %39 = tail call i64 @avio_skip(ptr noundef %38, i64 noundef 40) #4
  %40 = load ptr, ptr %7, align 8, !tbaa !27
  %41 = getelementptr inbounds nuw i8, ptr %40, i64 152
  %42 = load i32, ptr %41, align 8, !tbaa !41
  tail call void @avpriv_set_pts_info(ptr noundef nonnull %2, i32 noundef 64, i32 noundef 1, i32 noundef %42) #4
  br label %43

43:                                               ; preds = %24, %17, %1, %32, %16
  %.0 = phi i32 [ -1094995529, %16 ], [ 0, %32 ], [ -12, %1 ], [ -1094995529, %17 ], [ -1094995529, %24 ]
  ret i32 %.0
}